target datalayout = "e-m:e-p270:32:32-p271:32:32-p272:64:64-i64:64-i128:128-f80:128-n8:16:32:64-S128"
target triple = "x86_64-pc-linux-gnu"

%class.target_endian.2 = type { %class.base_endian.3 }
%class.base_endian.3 = type { i16 }

@.str = private unnamed_addr constant [19 x i8] c"misaligned address\00", align 1
@_ZTISt13runtime_error = external constant ptr

; Function Attrs: mustprogress uwtable
define void @_ZN7memif_t12write_uint16Em13target_endianItE(ptr noundef nonnull align 8 dereferenceable(16) %0, i64 noundef %1, i16 %2) unnamed_addr #0 align 2 personality ptr @__gxx_personality_v0 {
  %4 = alloca %class.target_endian.2, align 2
  %5 = alloca ptr, align 8
  %6 = alloca i64, align 8
  %7 = alloca ptr, align 8
  %8 = alloca i32, align 4
  %9 = getelementptr inbounds nuw %class.target_endian.2, ptr %4, i32 0, i32 0
  %10 = getelementptr inbounds nuw %class.base_endian.3, ptr %9, i32 0, i32 0
  store i16 %2, ptr %10, align 2
  store ptr %0, ptr %5, align 8, !tbaa !3
  store i64 %1, ptr %6, align 8, !tbaa !8
  %11 = load ptr, ptr %5, align 8
  %12 = load i64, ptr %6, align 8, !tbaa !8
  %13 = and i64 %12, 1
  %14 = icmp ne i64 %13, 0
  br i1 %14, label %15, label %22

15:                                               ; preds = %3
  %16 = call ptr @__cxa_allocate_exception(i64 16) #9
  invoke void @_ZNSt13runtime_errorC1EPKc(ptr noundef nonnull align 8 dereferenceable(16) %16, ptr noundef @.str)
          to label %17 unwind label %18

17:                                               ; preds = %15
  call void @__cxa_throw(ptr %16, ptr @_ZTISt13runtime_error, ptr @_ZNSt13runtime_errorD1Ev) #10
  unreachable

18:                                               ; preds = %15
  %19 = landingpad { ptr, i32 }
          cleanup
  %20 = extractvalue { ptr, i32 } %19, 0
  store ptr %20, ptr %7, align 8
  %21 = extractvalue { ptr, i32 } %19, 1
  store i32 %21, ptr %8, align 4
  call void @__cxa_free_exception(ptr %16) #9
  br label %27

22:                                               ; preds = %3
  %23 = load i64, ptr %6, align 8, !tbaa !8
  %24 = load ptr, ptr %11, align 8, !tbaa !14
  %25 = getelementptr inbounds ptr, ptr %24, i64 3
  %26 = load ptr, ptr %25, align 8
  call void %26(ptr noundef nonnull align 8 dereferenceable(16) %11, i64 noundef %23, i64 noundef 2, ptr noundef %4)
  ret void

27:                                               ; preds = %18
  %28 = load ptr, ptr %7, align 8
  %29 = load i32, ptr %8, align 4
  %30 = insertvalue { ptr, i32 } poison, ptr %28, 0
  %31 = insertvalue { ptr, i32 } %30, i32 %29, 1
  resume { ptr, i32 } %31
}